target datalayout = "e-m:e-p270:32:32-p271:32:32-p272:64:64-i64:64-i128:128-f80:128-n8:16:32:64-S128"
target triple = "x86_64-pc-linux-gnu"

%struct._zend_executor_globals = type { %struct._zval_struct, %struct._zval_struct, [32 x ptr], ptr, ptr, %struct._zend_array, %struct._zend_array, ptr, i32, i8, %struct._zval_struct, i32, ptr, ptr, ptr, ptr, ptr, ptr, i64, ptr, ptr, i32, ptr, i32, i64, i32, i32, i32, i8, i8, %struct.zend_atomic_bool_s, %struct.zend_atomic_bool_s, ptr, i64, ptr, ptr, %struct._zend_array, %struct._zend_array, i32, i8, %struct._zval_struct, %struct._zval_struct, %struct._zend_stack, %struct._zend_stack, %struct._zend_stack, ptr, i32, i32, i64, ptr, ptr, ptr, %struct._zend_objects_store, %struct._zend_lazy_objects_store, ptr, ptr, ptr, [3 x %struct._zend_op], ptr, i8, i8, i64, i32, i32, ptr, [16 x %struct._HashTableIterator], ptr, %union._zend_function, %struct._zend_op, %struct._zend_array, i64, %struct.zend_get_gc_buffer, ptr, ptr, ptr, i64, i8, i32, ptr, ptr, i64, %struct._zend_call_stack, i64, i64, %struct._zend_strtod_state, [6 x ptr] }
%struct.zend_atomic_bool_s = type { i8 }
%struct._zval_struct = type { %union._zend_value, %union.anon, %union.anon.2 }
%union._zend_value = type { i64 }
%union.anon = type { i32 }
%union.anon.2 = type { i32 }
%struct._zend_stack = type { i32, i32, i32, ptr }
%struct._zend_objects_store = type { ptr, i32, i32, i32 }
%struct._zend_lazy_objects_store = type { %struct._zend_array }
%struct._HashTableIterator = type { ptr, i32, i32 }
%union._zend_function = type { %struct._zend_op_array }
%struct._zend_op_array = type { i8, [3 x i8], i32, ptr, ptr, ptr, i32, i32, ptr, ptr, ptr, ptr, i32, ptr, i32, i32, i32, ptr, ptr, ptr, ptr, ptr, i32, i32, ptr, ptr, ptr, i32, i32, i32, i32, ptr, ptr, [6 x ptr] }
%struct._zend_op = type { ptr, %union._znode_op, %union._znode_op, %union._znode_op, i32, i32, i8, i8, i8, i8 }
%union._znode_op = type { i32 }
%struct._zend_array = type { %struct._zend_refcounted_h, %union.anon.4, i32, %union.anon.6, i32, i32, i32, i32, i64, ptr }
%struct._zend_refcounted_h = type { i32, %union.anon.3 }
%union.anon.3 = type { i32 }
%union.anon.4 = type { i32 }
%union.anon.6 = type { ptr }
%struct.zend_get_gc_buffer = type { ptr, ptr, ptr }
%struct._zend_call_stack = type { ptr, i64 }
%struct._zend_strtod_state = type { [8 x ptr], ptr, ptr }
%struct._zend_execute_data = type { ptr, ptr, ptr, ptr, %struct._zval_struct, ptr, ptr, ptr, ptr }
%struct._zend_object = type { %struct._zend_refcounted_h, i32, i32, ptr, ptr, ptr, [1 x %struct._zval_struct] }
%struct._php_sqlite3_stmt_object = type { ptr, ptr, i8, ptr, %struct._zend_object }
%struct.anon.0 = type { i8, i8, %union.anon.1 }
%union.anon.1 = type { i16 }
%struct._zend_refcounted = type { %struct._zend_refcounted_h }
%struct._php_sqlite3_result_object = type { ptr, ptr, i8, i32, ptr, %struct._zend_object }

@executor_globals = external global %struct._zend_executor_globals, align 8
@.str.8 = private unnamed_addr constant [75 x i8] c"The SQLite3 object has not been correctly initialised or is already closed\00", align 1
@php_sqlite3_result_entry = hidden global ptr null, align 8
@.str.22 = private unnamed_addr constant [32 x i8] c"Unable to execute statement: %s\00", align 1

; Function Attrs: alwaysinline nounwind uwtable
define internal i32 @zend_gc_addref(ptr noundef %0) #8 {
  %2 = alloca ptr, align 8
  store ptr %0, ptr %2, align 8, !tbaa !206
  br label %3

3:                                                ; preds = %1
  br label %4

4:                                                ; preds = %3
  %5 = load ptr, ptr %2, align 8, !tbaa !206
  %6 = getelementptr inbounds nuw %struct._zend_refcounted_h, ptr %5, i32 0, i32 0
  %7 = load i32, ptr %6, align 4, !tbaa !208
  %8 = add i32 %7, 1
  store i32 %8, ptr %6, align 4, !tbaa !208
  ret i32 %8
}

; Function Attrs: alwaysinline nounwind uwtable
define internal i32 @zval_addref_p(ptr noundef %0) #8 {
  %2 = alloca ptr, align 8
  store ptr %0, ptr %2, align 8, !tbaa !9
  %3 = load ptr, ptr %2, align 8, !tbaa !9
  %4 = getelementptr inbounds nuw %struct._zval_struct, ptr %3, i32 0, i32 1
  %5 = getelementptr inbounds nuw %struct.anon.0, ptr %4, i32 0, i32 1
  %6 = load i8, ptr %5, align 1, !tbaa !13
  %7 = zext i8 %6 to i32
  %8 = icmp ne i32 %7, 0
  call void @llvm.assume(i1 %8)
  %9 = load ptr, ptr %2, align 8, !tbaa !9
  %10 = getelementptr inbounds nuw %struct._zval_struct, ptr %9, i32 0, i32 0
  %11 = load ptr, ptr %10, align 8, !tbaa !13
  %12 = getelementptr inbounds nuw %struct._zend_refcounted, ptr %11, i32 0, i32 0
  %13 = call i32 @zend_gc_addref(ptr noundef %12)
  ret i32 %13
}

; Function Attrs: inlinehint nounwind uwtable
define internal ptr @php_sqlite3_result_from_obj(ptr noundef %0) #2 {
  %2 = alloca ptr, align 8
  store ptr %0, ptr %2, align 8, !tbaa !67
  %3 = load ptr, ptr %2, align 8, !tbaa !67
  %4 = getelementptr inbounds i8, ptr %3, i64 -32
  ret ptr %4
}

; Function Attrs: inlinehint nounwind uwtable
define internal ptr @php_sqlite3_stmt_from_obj(ptr noundef %0) #2 {
  %2 = alloca ptr, align 8
  store ptr %0, ptr %2, align 8, !tbaa !67
  %3 = load ptr, ptr %2, align 8, !tbaa !67
  %4 = getelementptr inbounds i8, ptr %3, i64 -32
  ret ptr %4
}

; Function Attrs: nounwind uwtable
define hidden void @zim_SQLite3Stmt_execute(ptr noundef %0, ptr noundef %1) #0 {
  %3 = alloca ptr, align 8
  %4 = alloca ptr, align 8
  %5 = alloca ptr, align 8
  %6 = alloca ptr, align 8
  %7 = alloca ptr, align 8
  %8 = alloca i32, align 4
  %9 = alloca i32, align 4
  %10 = alloca i32, align 4
  store ptr %0, ptr %3, align 8, !tbaa !4
  store ptr %1, ptr %4, align 8, !tbaa !9
  call void @llvm.lifetime.start.p0(i64 8, ptr %5) #15
  call void @llvm.lifetime.start.p0(i64 8, ptr %6) #15
  call void @llvm.lifetime.start.p0(i64 8, ptr %7) #15
  %11 = load ptr, ptr %3, align 8, !tbaa !4
  %12 = getelementptr inbounds nuw %struct._zend_execute_data, ptr %11, i32 0, i32 4
  store ptr %12, ptr %7, align 8, !tbaa !9
  call void @llvm.lifetime.start.p0(i64 4, ptr %8) #15
  store i32 0, ptr %8, align 4, !tbaa !63
  call void @llvm.lifetime.start.p0(i64 4, ptr %9) #15
  store i32 0, ptr %9, align 4, !tbaa !63
  %13 = load ptr, ptr %7, align 8, !tbaa !9
  %14 = getelementptr inbounds nuw %struct._zval_struct, ptr %13, i32 0, i32 0
  %15 = load ptr, ptr %14, align 8, !tbaa !13
  %16 = call ptr @php_sqlite3_stmt_from_obj(ptr noundef %15)
  store ptr %16, ptr %5, align 8, !tbaa !83
  br label %17

17:                                               ; preds = %2
  %18 = load ptr, ptr %3, align 8, !tbaa !4
  %19 = getelementptr inbounds nuw %struct._zend_execute_data, ptr %18, i32 0, i32 4
  %20 = getelementptr inbounds nuw %struct._zval_struct, ptr %19, i32 0, i32 2
  %21 = load i32, ptr %20, align 4, !tbaa !13
  %22 = icmp ne i32 %21, 0
  %23 = xor i1 %22, true
  %24 = xor i1 %23, true
  %25 = zext i1 %24 to i32
  %26 = sext i32 %25 to i64
  %27 = call i64 @llvm.expect.i64(i64 %26, i64 0)
  %28 = icmp ne i64 %27, 0
  br i1 %28, label %29, label %30

29:                                               ; preds = %17
  call void @zend_wrong_parameters_none_error()
  store i32 1, ptr %10, align 4
  br label %136

30:                                               ; preds = %17
  br label %31

31:                                               ; preds = %30
  br label %32

32:                                               ; preds = %31
  %33 = load ptr, ptr %5, align 8, !tbaa !83
  %34 = getelementptr inbounds nuw %struct._php_sqlite3_stmt_object, ptr %33, i32 0, i32 1
  %35 = load ptr, ptr %34, align 8, !tbaa !85
  %36 = icmp ne ptr %35, null
  br i1 %36, label %37, label %42

37:                                               ; preds = %32
  %38 = load ptr, ptr %5, align 8, !tbaa !83
  %39 = getelementptr inbounds nuw %struct._php_sqlite3_stmt_object, ptr %38, i32 0, i32 2
  %40 = load i8, ptr %39, align 8, !tbaa !88, !range !59, !noundef !60
  %41 = trunc i8 %40 to i1
  br i1 %41, label %48, label %42

42:                                               ; preds = %37, %32
  call void (ptr, ptr, ...) @zend_throw_error(ptr noundef null, ptr noundef @.str.8)
  br label %43

43:                                               ; preds = %42
  %44 = load ptr, ptr getelementptr inbounds nuw (%struct._zend_executor_globals, ptr @executor_globals, i32 0, i32 54), align 8, !tbaa !16
  %45 = icmp ne ptr %44, null
  call void @llvm.assume(i1 %45)
  store i32 1, ptr %10, align 4
  br label %136

46:                                               ; No predecessors!
  br label %47

47:                                               ; preds = %46
  br label %48

48:                                               ; preds = %47, %37
  %49 = load ptr, ptr %5, align 8, !tbaa !83
  %50 = getelementptr inbounds nuw %struct._php_sqlite3_stmt_object, ptr %49, i32 0, i32 0
  %51 = load ptr, ptr %50, align 8, !tbaa !102
  %52 = call i32 @sqlite3_reset(ptr noundef %51)
  %53 = load ptr, ptr %5, align 8, !tbaa !83
  %54 = call i32 @php_sqlite3_bind_params(ptr noundef %53)
  store i32 %54, ptr %9, align 4, !tbaa !63
  %55 = load i32, ptr %9, align 4, !tbaa !63
  %56 = icmp eq i32 %55, -1
  br i1 %56, label %60, label %57

57:                                               ; preds = %48
  %58 = load ptr, ptr getelementptr inbounds nuw (%struct._zend_executor_globals, ptr @executor_globals, i32 0, i32 54), align 8, !tbaa !16
  %59 = icmp ne ptr %58, null
  br i1 %59, label %60, label %69

60:                                               ; preds = %57, %48
  br label %61

61:                                               ; preds = %60
  br label %62

62:                                               ; preds = %61
  %63 = load ptr, ptr %4, align 8, !tbaa !9
  %64 = getelementptr inbounds nuw %struct._zval_struct, ptr %63, i32 0, i32 1
  store i32 2, ptr %64, align 8, !tbaa !13
  br label %65

65:                                               ; preds = %62
  br label %66

66:                                               ; preds = %65
  store i32 1, ptr %10, align 4
  br label %136

67:                                               ; No predecessors!
  br label %68

68:                                               ; preds = %67
  br label %69

69:                                               ; preds = %68, %57
  %70 = load ptr, ptr %5, align 8, !tbaa !83
  %71 = getelementptr inbounds nuw %struct._php_sqlite3_stmt_object, ptr %70, i32 0, i32 0
  %72 = load ptr, ptr %71, align 8, !tbaa !102
  %73 = call i32 @sqlite3_step(ptr noundef %72)
  store i32 %73, ptr %8, align 4, !tbaa !63
  %74 = load i32, ptr %8, align 4, !tbaa !63
  switch i32 %74, label %108 [
    i32 100, label %75
    i32 101, label %75
    i32 1, label %103
  ]

75:                                               ; preds = %69, %69
  %76 = load ptr, ptr %5, align 8, !tbaa !83
  %77 = getelementptr inbounds nuw %struct._php_sqlite3_stmt_object, ptr %76, i32 0, i32 0
  %78 = load ptr, ptr %77, align 8, !tbaa !102
  %79 = call i32 @sqlite3_reset(ptr noundef %78)
  %80 = load ptr, ptr %4, align 8, !tbaa !9
  %81 = load ptr, ptr @php_sqlite3_result_entry, align 8, !tbaa !61
  %82 = call i32 @object_init_ex(ptr noundef %80, ptr noundef %81)
  %83 = load ptr, ptr %4, align 8, !tbaa !9
  %84 = getelementptr inbounds nuw %struct._zval_struct, ptr %83, i32 0, i32 0
  %85 = load ptr, ptr %84, align 8, !tbaa !13
  %86 = call ptr @php_sqlite3_result_from_obj(ptr noundef %85)
  store ptr %86, ptr %6, align 8, !tbaa !94
  %87 = load ptr, ptr %6, align 8, !tbaa !94
  %88 = getelementptr inbounds nuw %struct._php_sqlite3_result_object, ptr %87, i32 0, i32 2
  store i8 1, ptr %88, align 8, !tbaa !169
  %89 = load ptr, ptr %5, align 8, !tbaa !83
  %90 = getelementptr inbounds nuw %struct._php_sqlite3_stmt_object, ptr %89, i32 0, i32 1
  %91 = load ptr, ptr %90, align 8, !tbaa !85
  %92 = load ptr, ptr %6, align 8, !tbaa !94
  %93 = getelementptr inbounds nuw %struct._php_sqlite3_result_object, ptr %92, i32 0, i32 0
  store ptr %91, ptr %93, align 8, !tbaa !96
  %94 = load ptr, ptr %5, align 8, !tbaa !83
  %95 = load ptr, ptr %6, align 8, !tbaa !94
  %96 = getelementptr inbounds nuw %struct._php_sqlite3_result_object, ptr %95, i32 0, i32 1
  store ptr %94, ptr %96, align 8, !tbaa !99
  %97 = load ptr, ptr %6, align 8, !tbaa !94
  %98 = getelementptr inbounds nuw %struct._php_sqlite3_result_object, ptr %97, i32 0, i32 4
  store ptr null, ptr %98, align 8, !tbaa !100
  %99 = load ptr, ptr %6, align 8, !tbaa !94
  %100 = getelementptr inbounds nuw %struct._php_sqlite3_result_object, ptr %99, i32 0, i32 3
  store i32 -1, ptr %100, align 4, !tbaa !101
  %101 = load ptr, ptr %7, align 8, !tbaa !9
  %102 = call i32 @zval_addref_p(ptr noundef %101)
  br label %135

103:                                              ; preds = %69
  %104 = load ptr, ptr %5, align 8, !tbaa !83
  %105 = getelementptr inbounds nuw %struct._php_sqlite3_stmt_object, ptr %104, i32 0, i32 0
  %106 = load ptr, ptr %105, align 8, !tbaa !102
  %107 = call i32 @sqlite3_reset(ptr noundef %106)
  br label %108

108:                                              ; preds = %69, %103
  %109 = load ptr, ptr getelementptr inbounds nuw (%struct._zend_executor_globals, ptr @executor_globals, i32 0, i32 54), align 8, !tbaa !16
  %110 = icmp ne ptr %109, null
  br i1 %110, label %125, label %111

111:                                              ; preds = %108
  %112 = load ptr, ptr %5, align 8, !tbaa !83
  %113 = getelementptr inbounds nuw %struct._php_sqlite3_stmt_object, ptr %112, i32 0, i32 1
  %114 = load ptr, ptr %113, align 8, !tbaa !85
  %115 = load ptr, ptr %5, align 8, !tbaa !83
  %116 = getelementptr inbounds nuw %struct._php_sqlite3_stmt_object, ptr %115, i32 0, i32 0
  %117 = load ptr, ptr %116, align 8, !tbaa !102
  %118 = call ptr @sqlite3_db_handle(ptr noundef %117)
  %119 = call i32 @sqlite3_errcode(ptr noundef %118)
  %120 = load ptr, ptr %5, align 8, !tbaa !83
  %121 = getelementptr inbounds nuw %struct._php_sqlite3_stmt_object, ptr %120, i32 0, i32 0
  %122 = load ptr, ptr %121, align 8, !tbaa !102
  %123 = call ptr @sqlite3_db_handle(ptr noundef %122)
  %124 = call ptr @sqlite3_errmsg(ptr noundef %123)
  call void (ptr, i32, ptr, ...) @php_sqlite3_error(ptr noundef %114, i32 noundef %119, ptr noundef @.str.22, ptr noundef %124)
  br label %125

125:                                              ; preds = %111, %108
  %126 = load ptr, ptr %4, align 8, !tbaa !9
  call void @zval_ptr_dtor(ptr noundef %126)
  br label %127

127:                                              ; preds = %125
  br label %128

128:                                              ; preds = %127
  %129 = load ptr, ptr %4, align 8, !tbaa !9
  %130 = getelementptr inbounds nuw %struct._zval_struct, ptr %129, i32 0, i32 1
  store i32 2, ptr %130, align 8, !tbaa !13
  br label %131

131:                                              ; preds = %128
  br label %132

132:                                              ; preds = %131
  store i32 1, ptr %10, align 4
  br label %136

133:                                              ; No predecessors!
  br label %134

134:                                              ; preds = %133
  br label %135

135:                                              ; preds = %134, %75
  store i32 1, ptr %10, align 4
  br label %136

136:                                              ; preds = %135, %132, %66, %43, %29
  call void @llvm.lifetime.end.p0(i64 4, ptr %9) #15
  call void @llvm.lifetime.end.p0(i64 4, ptr %8) #15
  call void @llvm.lifetime.end.p0(i64 8, ptr %7) #15
  call void @llvm.lifetime.end.p0(i64 8, ptr %6) #15
  call void @llvm.lifetime.end.p0(i64 8, ptr %5) #15
  ret void
}