; Function Attrs: nounwind uwtable
define hidden void @zim_SQLite3Stmt_execute(ptr noundef readonly captures(none) %0, ptr noundef %1) #0 {
  %3 = getelementptr inbounds nuw i8, ptr %0, i64 32
  %4 = load ptr, ptr %3, align 8, !tbaa !8
  %5 = getelementptr inbounds i8, ptr %4, i64 -32
  %6 = getelementptr inbounds nuw i8, ptr %0, i64 44
  %7 = load i32, ptr %6, align 4, !tbaa !8
  %.not = icmp eq i32 %7, 0
  br i1 %.not, label %9, label %8, !prof !75

8:                                                ; preds = %2
  tail call void @zend_wrong_parameters_none_error() #17
  br label %64

9:                                                ; preds = %2
  %10 = getelementptr inbounds i8, ptr %4, i64 -24
  %11 = load ptr, ptr %10, align 8, !tbaa !84
  %.not28 = icmp eq ptr %11, null
  br i1 %.not28, label %16, label %12

12:                                               ; preds = %9
  %13 = getelementptr inbounds i8, ptr %4, i64 -16
  %14 = load i8, ptr %13, align 8, !tbaa !88, !range !55, !noundef !56
  %15 = trunc nuw i8 %14 to i1
  br i1 %15, label %19, label %16

16:                                               ; preds = %12, %9
  tail call void (ptr, ptr, ...) @zend_throw_error(ptr noundef null, ptr noundef nonnull @.str.8) #17
  %17 = load ptr, ptr getelementptr inbounds nuw (i8, ptr @executor_globals, i64 960), align 8, !tbaa !9
  %18 = icmp ne ptr %17, null
  tail call void @llvm.assume(i1 %18)
  br label %64

19:                                               ; preds = %12
  %20 = load ptr, ptr %5, align 8, !tbaa !100
  %21 = tail call i32 @sqlite3_reset(ptr noundef %20) #17
  %22 = tail call fastcc i32 @php_sqlite3_bind_params(ptr noundef nonnull %5)
  %23 = icmp eq i32 %22, -1
  %24 = load ptr, ptr getelementptr inbounds nuw (i8, ptr @executor_globals, i64 960), align 8
  %25 = icmp ne ptr %24, null
  %or.cond = select i1 %23, i1 true, i1 %25
  br i1 %or.cond, label %26, label %28

26:                                               ; preds = %19
  %27 = getelementptr inbounds nuw i8, ptr %1, i64 8
  store i32 2, ptr %27, align 8, !tbaa !8
  br label %64

28:                                               ; preds = %19
  %29 = load ptr, ptr %5, align 8, !tbaa !100
  %30 = tail call i32 @sqlite3_step(ptr noundef %29) #17
  switch i32 %30, label %52 [
    i32 100, label %31
    i32 101, label %31
    i32 1, label %49
  ]

31:                                               ; preds = %28, %28
  %32 = load ptr, ptr %5, align 8, !tbaa !100
  %33 = tail call i32 @sqlite3_reset(ptr noundef %32) #17
  %34 = load ptr, ptr @php_sqlite3_result_entry, align 8, !tbaa !57
  %35 = tail call i32 @object_init_ex(ptr noundef %1, ptr noundef %34) #17
  %36 = load ptr, ptr %1, align 8, !tbaa !8
  %37 = getelementptr inbounds i8, ptr %36, i64 -32
  %38 = getelementptr inbounds i8, ptr %36, i64 -16
  store i8 1, ptr %38, align 8, !tbaa !148
  %39 = load ptr, ptr %10, align 8, !tbaa !84
  store ptr %39, ptr %37, align 8, !tbaa !94
  %40 = getelementptr inbounds i8, ptr %36, i64 -24
  store ptr %5, ptr %40, align 8, !tbaa !97
  %41 = getelementptr inbounds i8, ptr %36, i64 -8
  store ptr null, ptr %41, align 8, !tbaa !98
  %42 = getelementptr inbounds i8, ptr %36, i64 -12
  store i32 -1, ptr %42, align 4, !tbaa !99
  %43 = getelementptr inbounds nuw i8, ptr %0, i64 41
  %44 = load i8, ptr %43, align 1, !tbaa !8
  %45 = icmp ne i8 %44, 0
  tail call void @llvm.assume(i1 %45)
  %46 = load ptr, ptr %3, align 8, !tbaa !8
  %47 = load i32, ptr %46, align 4, !tbaa !70
  %48 = add i32 %47, 1
  store i32 %48, ptr %46, align 4, !tbaa !70
  br label %64

49:                                               ; preds = %28
  %50 = load ptr, ptr %5, align 8, !tbaa !100
  %51 = tail call i32 @sqlite3_reset(ptr noundef %50) #17
  br label %52

52:                                               ; preds = %49, %28
  %53 = load ptr, ptr getelementptr inbounds nuw (i8, ptr @executor_globals, i64 960), align 8, !tbaa !9
  %.not29 = icmp eq ptr %53, null
  br i1 %.not29, label %54, label %62

54:                                               ; preds = %52
  %55 = load ptr, ptr %10, align 8, !tbaa !84
  %56 = load ptr, ptr %5, align 8, !tbaa !100
  %57 = tail call ptr @sqlite3_db_handle(ptr noundef %56) #17
  %58 = tail call i32 @sqlite3_errcode(ptr noundef %57) #17
  %59 = load ptr, ptr %5, align 8, !tbaa !100
  %60 = tail call ptr @sqlite3_db_handle(ptr noundef %59) #17
  %61 = tail call ptr @sqlite3_errmsg(ptr noundef %60) #17
  tail call void (ptr, i32, ptr, ...) @php_sqlite3_error(ptr noundef %55, i32 noundef %58, ptr noundef nonnull @.str.22, ptr noundef %61)
  br label %62

62:                                               ; preds = %54, %52
  tail call void @zval_ptr_dtor(ptr noundef %1) #17
  %63 = getelementptr inbounds nuw i8, ptr %1, i64 8
  store i32 2, ptr %63, align 8, !tbaa !8
  br label %64

64:                                               ; preds = %31, %62, %26, %16, %8
  ret void
}